target datalayout = "e-m:e-p270:32:32-p271:32:32-p272:64:64-i64:64-i128:128-f80:128-n8:16:32:64-S128"
target triple = "x86_64-unknown-linux-gnu"

%"struct.q::instruction" = type { i32, ptr }
%class.ast = type { i32, i24, i32, i32 }
%"struct.q::yield" = type <{ %"struct.q::instruction", ptr, ptr, i16, [2 x i8], [0 x i32], [4 x i8] }>

@.str = private unnamed_addr constant [2 x i8] c"N\00", align 1
@.str.3 = private unnamed_addr constant [2 x i8] c" \00", align 1
@.str.4 = private unnamed_addr constant [2 x i8] c")\00", align 1
@.str.7 = private unnamed_addr constant [7 x i8] c"(YIELD\00", align 1
@.str.8 = private unnamed_addr constant [3 x i8] c" #\00", align 1

; Function Attrs: mustprogress nounwind uwtable
define linkonce_odr hidden noundef i32 @_ZNK3ast6get_idEv(ptr noundef nonnull align 4 dereferenceable(16) %this) #4 comdat align 2 {
entry:
  %this.addr = alloca ptr, align 8
  store ptr %this, ptr %this.addr, align 8
  %this1 = load ptr, ptr %this.addr, align 8
  %m_id = getelementptr inbounds %class.ast, ptr %this1, i32 0, i32 0
  %0 = load i32, ptr %m_id, align 4
  ret i32 %0
}

; Function Attrs: mustprogress uwtable
define hidden void @_ZN1q16display_num_argsERSoj(ptr noundef nonnull align 8 dereferenceable(8) %out, i32 noundef %num_args) #5 {
entry:
  %out.addr = alloca ptr, align 8
  %num_args.addr = alloca i32, align 4
  store ptr %out, ptr %out.addr, align 8
  store i32 %num_args, ptr %num_args.addr, align 4
  %0 = load i32, ptr %num_args.addr, align 4
  %cmp = icmp ule i32 %0, 6
  br i1 %cmp, label %if.then, label %if.else

if.then:                                          ; preds = %entry
  %1 = load ptr, ptr %out.addr, align 8
  %2 = load i32, ptr %num_args.addr, align 4
  %call = call noundef nonnull align 8 dereferenceable(8) ptr @_ZNSolsEj(ptr noundef nonnull align 8 dereferenceable(8) %1, i32 noundef %2)
  br label %if.end

if.else:                                          ; preds = %entry
  %3 = load ptr, ptr %out.addr, align 8
  %call1 = call noundef nonnull align 8 dereferenceable(8) ptr @_ZStlsISt11char_traitsIcEERSt13basic_ostreamIcT_ES5_PKc(ptr noundef nonnull align 8 dereferenceable(8) %3, ptr noundef @.str)
  br label %if.end

if.end:                                           ; preds = %if.else, %if.then
  ret void
}

; Function Attrs: mustprogress uwtable
define hidden void @_ZN1q13display_yieldERSoRKNS_5yieldE(ptr noundef nonnull align 8 dereferenceable(8) %out, ptr noundef nonnull align 8 dereferenceable(36) %y) #5 {
entry:
  %out.addr = alloca ptr, align 8
  %y.addr = alloca ptr, align 8
  %i = alloca i32, align 4
  store ptr %out, ptr %out.addr, align 8
  store ptr %y, ptr %y.addr, align 8
  %0 = load ptr, ptr %out.addr, align 8
  %call = call noundef nonnull align 8 dereferenceable(8) ptr @_ZStlsISt11char_traitsIcEERSt13basic_ostreamIcT_ES5_PKc(ptr noundef nonnull align 8 dereferenceable(8) %0, ptr noundef @.str.7)
  %1 = load ptr, ptr %out.addr, align 8
  %2 = load ptr, ptr %y.addr, align 8
  %m_num_bindings = getelementptr inbounds %"struct.q::yield", ptr %2, i32 0, i32 3
  %3 = load i16, ptr %m_num_bindings, align 8
  %conv = zext i16 %3 to i32
  call void @_ZN1q16display_num_argsERSoj(ptr noundef nonnull align 8 dereferenceable(8) %1, i32 noundef %conv)
  %4 = load ptr, ptr %out.addr, align 8
  %call1 = call noundef nonnull align 8 dereferenceable(8) ptr @_ZStlsISt11char_traitsIcEERSt13basic_ostreamIcT_ES5_PKc(ptr noundef nonnull align 8 dereferenceable(8) %4, ptr noundef @.str.8)
  %5 = load ptr, ptr %y.addr, align 8
  %m_qa = getelementptr inbounds %"struct.q::yield", ptr %5, i32 0, i32 1
  %6 = load ptr, ptr %m_qa, align 8
  %call2 = call noundef i32 @_ZNK3ast6get_idEv(ptr noundef nonnull align 4 dereferenceable(16) %6)
  %call3 = call noundef nonnull align 8 dereferenceable(8) ptr @_ZNSolsEj(ptr noundef nonnull align 8 dereferenceable(8) %call1, i32 noundef %call2)
  store i32 0, ptr %i, align 4
  br label %for.cond

for.cond:                                         ; preds = %for.inc, %entry
  %7 = load i32, ptr %i, align 4
  %8 = load ptr, ptr %y.addr, align 8
  %m_num_bindings4 = getelementptr inbounds %"struct.q::yield", ptr %8, i32 0, i32 3
  %9 = load i16, ptr %m_num_bindings4, align 8
  %conv5 = zext i16 %9 to i32
  %cmp = icmp ult i32 %7, %conv5
  br i1 %cmp, label %for.body, label %for.end

for.body:                                         ; preds = %for.cond
  %10 = load ptr, ptr %out.addr, align 8
  %call6 = call noundef nonnull align 8 dereferenceable(8) ptr @_ZStlsISt11char_traitsIcEERSt13basic_ostreamIcT_ES5_PKc(ptr noundef nonnull align 8 dereferenceable(8) %10, ptr noundef @.str.3)
  %11 = load ptr, ptr %y.addr, align 8
  %m_bindings = getelementptr inbounds %"struct.q::yield", ptr %11, i32 0, i32 5
  %12 = load i32, ptr %i, align 4
  %idxprom = zext i32 %12 to i64
  %arrayidx = getelementptr inbounds [0 x i32], ptr %m_bindings, i64 0, i64 %idxprom
  %13 = load i32, ptr %arrayidx, align 4
  %call7 = call noundef nonnull align 8 dereferenceable(8) ptr @_ZNSolsEj(ptr noundef nonnull align 8 dereferenceable(8) %call6, i32 noundef %13)
  br label %for.inc

for.inc:                                          ; preds = %for.body
  %14 = load i32, ptr %i, align 4
  %inc = add i32 %14, 1
  store i32 %inc, ptr %i, align 4
  br label %for.cond, !llvm.loop !8

for.end:                                          ; preds = %for.cond
  %15 = load ptr, ptr %out.addr, align 8
  %call8 = call noundef nonnull align 8 dereferenceable(8) ptr @_ZStlsISt11char_traitsIcEERSt13basic_ostreamIcT_ES5_PKc(ptr noundef nonnull align 8 dereferenceable(8) %15, ptr noundef @.str.4)
  ret void
}