; Function Attrs: mustprogress uwtable
define hidden void @_ZN1q13display_yieldERSoRKNS_5yieldE(ptr noundef nonnull align 8 dereferenceable(8) %out, ptr nocapture noundef nonnull readonly align 8 dereferenceable(36) %y) local_unnamed_addr #4 {
entry:
  %call = tail call noundef nonnull align 8 dereferenceable(8) ptr @_ZStlsISt11char_traitsIcEERSt13basic_ostreamIcT_ES5_PKc(ptr noundef nonnull align 8 dereferenceable(8) %out, ptr noundef nonnull @.str.7)
  %m_num_bindings = getelementptr inbounds i8, ptr %y, i64 32
  %0 = load i16, ptr %m_num_bindings, align 8
  %cmp.i = icmp ult i16 %0, 7
  br i1 %cmp.i, label %if.then.i, label %if.else.i

if.then.i:                                        ; preds = %entry
  %conv = zext nneg i16 %0 to i32
  %call.i = tail call noundef nonnull align 8 dereferenceable(8) ptr @_ZNSolsEj(ptr noundef nonnull align 8 dereferenceable(8) %out, i32 noundef %conv)
  br label %_ZN1q16display_num_argsERSoj.exit

if.else.i:                                        ; preds = %entry
  %call1.i = tail call noundef nonnull align 8 dereferenceable(8) ptr @_ZStlsISt11char_traitsIcEERSt13basic_ostreamIcT_ES5_PKc(ptr noundef nonnull align 8 dereferenceable(8) %out, ptr noundef nonnull @.str)
  br label %_ZN1q16display_num_argsERSoj.exit

_ZN1q16display_num_argsERSoj.exit:                ; preds = %if.then.i, %if.else.i
  %call1 = tail call noundef nonnull align 8 dereferenceable(8) ptr @_ZStlsISt11char_traitsIcEERSt13basic_ostreamIcT_ES5_PKc(ptr noundef nonnull align 8 dereferenceable(8) %out, ptr noundef nonnull @.str.8)
  %m_qa = getelementptr inbounds i8, ptr %y, i64 16
  %1 = load ptr, ptr %m_qa, align 8
  %2 = load i32, ptr %1, align 4
  %call3 = tail call noundef nonnull align 8 dereferenceable(8) ptr @_ZNSolsEj(ptr noundef nonnull align 8 dereferenceable(8) %call1, i32 noundef %2)
  %3 = load i16, ptr %m_num_bindings, align 8
  %cmp11.not = icmp eq i16 %3, 0
  br i1 %cmp11.not, label %for.end, label %for.body.lr.ph

for.body.lr.ph:                                   ; preds = %_ZN1q16display_num_argsERSoj.exit
  %m_bindings = getelementptr inbounds i8, ptr %y, i64 36
  br label %for.body

for.body:                                         ; preds = %for.body.lr.ph, %for.body
  %indvars.iv = phi i64 [ 0, %for.body.lr.ph ], [ %indvars.iv.next, %for.body ]
  %call6 = tail call noundef nonnull align 8 dereferenceable(8) ptr @_ZStlsISt11char_traitsIcEERSt13basic_ostreamIcT_ES5_PKc(ptr noundef nonnull align 8 dereferenceable(8) %out, ptr noundef nonnull @.str.3)
  %arrayidx = getelementptr inbounds [0 x i32], ptr %m_bindings, i64 0, i64 %indvars.iv
  %4 = load i32, ptr %arrayidx, align 4
  %call7 = tail call noundef nonnull align 8 dereferenceable(8) ptr @_ZNSolsEj(ptr noundef nonnull align 8 dereferenceable(8) %call6, i32 noundef %4)
  %indvars.iv.next = add nuw nsw i64 %indvars.iv, 1
  %5 = load i16, ptr %m_num_bindings, align 8
  %6 = zext i16 %5 to i64
  %cmp = icmp ult i64 %indvars.iv.next, %6
  br i1 %cmp, label %for.body, label %for.end, !llvm.loop !8

for.end:                                          ; preds = %for.body, %_ZN1q16display_num_argsERSoj.exit
  %call8 = tail call noundef nonnull align 8 dereferenceable(8) ptr @_ZStlsISt11char_traitsIcEERSt13basic_ostreamIcT_ES5_PKc(ptr noundef nonnull align 8 dereferenceable(8) %out, ptr noundef nonnull @.str.4)
  ret void
}